; Function Attrs: mustprogress noreturn uwtable
define void @_ZN6gmxapi8Workflow7addNodeB5cxx11ESt10unique_ptrINS_17NodeSpecificationESt14default_deleteIS2_EE(ptr dead_on_unwind noalias nocapture readnone sret(%"class.std::__cxx11::basic_string") align 8 %0, ptr nocapture noundef readnone %1) local_unnamed_addr #9 align 2 personality ptr @__gxx_personality_v0 {
  %3 = tail call ptr @__cxa_allocate_exception(i64 40) #16
  invoke void @_ZN6gmxapi26MissingImplementationErrorCI2NS_14BasicExceptionIS0_EEEPKc(ptr noundef nonnull align 8 dereferenceable(40) %3, ptr noundef nonnull @.str)
          to label %4 unwind label %5

4:                                                ; preds = %2
  tail call void @__cxa_throw(ptr nonnull %3, ptr nonnull @_ZTIN6gmxapi26MissingImplementationErrorE, ptr nonnull @_ZN6gmxapi26MissingImplementationErrorD2Ev) #19
  unreachable

5:                                                ; preds = %2
  %6 = landingpad { ptr, i32 }
          cleanup
  tail call void @__cxa_free_exception(ptr %3) #16
  resume { ptr, i32 } %6
}